target datalayout = "e-m:e-p270:32:32-p271:32:32-p272:64:64-i64:64-i128:128-f80:128-n8:16:32:64-S128"
target triple = "x86_64-pc-linux-gnu"

@proto_register_mim.ett = internal global [2 x ptr] [ptr @ett_mim, ptr @ett_hmac], align 16
@.str.55 = private unnamed_addr constant [17 x i8] c"Cisco FabricPath\00", align 1
@.str.56 = private unnamed_addr constant [4 x i8] c"CFP\00", align 1
@.str.57 = private unnamed_addr constant [4 x i8] c"cfp\00", align 1
@proto_fp = internal global i32 0, align 4
@.str.58 = private unnamed_addr constant [7 x i8] c"enable\00", align 1
@.str.59 = private unnamed_addr constant [10 x i8] c"check_fcs\00", align 1
@.str.60 = private unnamed_addr constant [45 x i8] c"Validate the FabricPath checksum if possible\00", align 1
@.str.61 = private unnamed_addr constant [45 x i8] c"Whether to validate the Frame Check Sequence\00", align 1
@fp_check_fcs = internal global i32 0, align 4

; Function Attrs: nounwind uwtable
define hidden void @proto_register_mim() #0 {
  %1 = alloca ptr, align 8
  %2 = alloca ptr, align 8
  %3 = call i32 @proto_register_protocol(ptr noundef @.str.55, ptr noundef @.str.56, ptr noundef @.str.57)
  store i32 %3, ptr @proto_fp, align 4
  %4 = load i32, ptr @proto_fp, align 4
  %5 = call ptr @prefs_register_protocol(i32 noundef %4, ptr noundef null)
  store ptr %5, ptr %1, align 8
  %6 = load ptr, ptr %1, align 8
  call void @prefs_register_obsolete_preference(ptr noundef %6, ptr noundef @.str.58)
  %7 = load ptr, ptr %1, align 8
  call void @prefs_register_bool_preference(ptr noundef %7, ptr noundef @.str.59, ptr noundef @.str.60, ptr noundef @.str.61, ptr noundef @fp_check_fcs)
  %8 = load i32, ptr @proto_fp, align 4
  call void @proto_register_field_array(i32 noundef %8, ptr noundef @proto_register_mim.hf, i32 noundef 19)
  call void @proto_register_subtree_array(ptr noundef @proto_register_mim.ett, i32 noundef 2)
  %9 = load i32, ptr @proto_fp, align 4
  %10 = call ptr @expert_register_protocol(i32 noundef %9)
  store ptr %10, ptr %2, align 8
  %11 = load ptr, ptr %2, align 8
  call void @expert_register_field_array(ptr noundef %11, ptr noundef @proto_register_mim.ei, i32 noundef 1)
  ret void
}