; Function Attrs: nounwind uwtable
define hidden void @proto_register_mim() local_unnamed_addr #0 {
  %1 = tail call i32 @proto_register_protocol(ptr noundef nonnull @.str.55, ptr noundef nonnull @.str.56, ptr noundef nonnull @.str.57) #4
  store i32 %1, ptr @proto_fp, align 4
  %2 = tail call ptr @prefs_register_protocol(i32 noundef %1, ptr noundef null) #4
  tail call void @prefs_register_obsolete_preference(ptr noundef %2, ptr noundef nonnull @.str.58) #4
  tail call void @prefs_register_bool_preference(ptr noundef %2, ptr noundef nonnull @.str.59, ptr noundef nonnull @.str.60, ptr noundef nonnull @.str.61, ptr noundef nonnull @fp_check_fcs) #4
  %3 = load i32, ptr @proto_fp, align 4
  tail call void @proto_register_field_array(i32 noundef %3, ptr noundef nonnull @proto_register_mim.hf, i32 noundef 19) #4
  tail call void @proto_register_subtree_array(ptr noundef nonnull @proto_register_mim.ett, i32 noundef 2) #4
  %4 = load i32, ptr @proto_fp, align 4
  %5 = tail call ptr @expert_register_protocol(i32 noundef %4) #4
  tail call void @expert_register_field_array(ptr noundef %5, ptr noundef nonnull @proto_register_mim.ei, i32 noundef 1) #4
  ret void
}